target datalayout = "e-m:e-p270:32:32-p271:32:32-p272:64:64-i64:64-i128:128-f80:128-n8:16:32:64-S128"
target triple = "x86_64-pc-linux-gnu"

%struct.bignum_st = type { ptr, i32, i32, i32, i32 }

; Function Attrs: nounwind uwtable
define hidden i32 @BN_mod_sub_quick(ptr noundef %0, ptr noundef %1, ptr noundef %2, ptr noundef %3) #0 {
  %5 = alloca i32, align 4
  %6 = alloca ptr, align 8
  %7 = alloca ptr, align 8
  %8 = alloca ptr, align 8
  %9 = alloca ptr, align 8
  store ptr %0, ptr %6, align 8, !tbaa !6
  store ptr %1, ptr %7, align 8, !tbaa !6
  store ptr %2, ptr %8, align 8, !tbaa !6
  store ptr %3, ptr %9, align 8, !tbaa !6
  %10 = load ptr, ptr %6, align 8, !tbaa !6
  %11 = load ptr, ptr %7, align 8, !tbaa !6
  %12 = load ptr, ptr %8, align 8, !tbaa !6
  %13 = call i32 @BN_sub(ptr noundef %10, ptr noundef %11, ptr noundef %12)
  %14 = icmp ne i32 %13, 0
  br i1 %14, label %16, label %15

15:                                               ; preds = %4
  store i32 0, ptr %5, align 4
  br label %27

16:                                               ; preds = %4
  %17 = load ptr, ptr %6, align 8, !tbaa !6
  %18 = getelementptr inbounds nuw %struct.bignum_st, ptr %17, i32 0, i32 3
  %19 = load i32, ptr %18, align 8, !tbaa !22
  %20 = icmp ne i32 %19, 0
  br i1 %20, label %21, label %26

21:                                               ; preds = %16
  %22 = load ptr, ptr %6, align 8, !tbaa !6
  %23 = load ptr, ptr %6, align 8, !tbaa !6
  %24 = load ptr, ptr %9, align 8, !tbaa !6
  %25 = call i32 @BN_add(ptr noundef %22, ptr noundef %23, ptr noundef %24)
  store i32 %25, ptr %5, align 4
  br label %27

26:                                               ; preds = %16
  store i32 1, ptr %5, align 4
  br label %27

27:                                               ; preds = %26, %21, %15
  %28 = load i32, ptr %5, align 4
  ret i32 %28
}