; Function Attrs: nounwind uwtable
define hidden i32 @BN_mod_sub_quick(ptr noundef %0, ptr noundef %1, ptr noundef %2, ptr noundef %3) local_unnamed_addr #0 {
  %5 = tail call i32 @BN_sub(ptr noundef %0, ptr noundef %1, ptr noundef %2) #6
  %.not = icmp eq i32 %5, 0
  br i1 %.not, label %11, label %6

6:                                                ; preds = %4
  %7 = getelementptr inbounds nuw i8, ptr %0, i64 16
  %8 = load i32, ptr %7, align 8, !tbaa !17
  %.not7 = icmp eq i32 %8, 0
  br i1 %.not7, label %11, label %9

9:                                                ; preds = %6
  %10 = tail call i32 @BN_add(ptr noundef nonnull %0, ptr noundef nonnull %0, ptr noundef %3) #6
  br label %11

11:                                               ; preds = %6, %4, %9
  %.0 = phi i32 [ %10, %9 ], [ 0, %4 ], [ 1, %6 ]
  ret i32 %.0
}